; ModuleID = '29/1822.c'
source_filename = "29/1822.c"
target datalayout = "e-m:e-p270:32:32-p271:32:32-p272:64:64-i64:64-f80:128-n8:16:32:64-S128"
target triple = "x86_64-pc-linux-gnu"

@.str = private unnamed_addr constant [3 x i8] c"%d\00", align 1
@.str.1 = private unnamed_addr constant [7 x i8] c"%.3lf\0A\00", align 1

; Function Attrs: noinline nounwind uwtable
define dso_local i32 @main() #0 {
  %1 = alloca i32, align 4
  %2 = alloca i32, align 4
  %3 = alloca i32, align 4
  %4 = alloca i32, align 4
  %5 = alloca i32, align 4
  %6 = alloca double, align 8
  %7 = alloca double, align 8
  %8 = alloca [3000 x double], align 16
  %9 = alloca double, align 8
  %10 = alloca double, align 8
  store i32 0, i32* %1, align 4
  %11 = call i32 (i8*, ...) @__isoc99_scanf(i8* getelementptr inbounds ([3 x i8], [3 x i8]* @.str, i64 0, i64 0), i32* %3)
  store i32 1, i32* %4, align 4
  br label %12

12:                                               ; preds = %63, %0
  %13 = load i32, i32* %4, align 4
  %14 = load i32, i32* %3, align 4
  %15 = icmp sle i32 %13, %14
  br i1 %15, label %16, label %66

16:                                               ; preds = %12
  %17 = call i32 (i8*, ...) @__isoc99_scanf(i8* getelementptr inbounds ([3 x i8], [3 x i8]* @.str, i64 0, i64 0), i32* %2)
  %18 = getelementptr inbounds [3000 x double], [3000 x double]* %8, i64 0, i64 1
  store double 1.000000e+00, double* %18, align 8
  %19 = getelementptr inbounds [3000 x double], [3000 x double]* %8, i64 0, i64 2
  store double 2.000000e+00, double* %19, align 16
  %20 = getelementptr inbounds [3000 x double], [3000 x double]* %8, i64 0, i64 2
  %21 = load double, double* %20, align 16
  %22 = getelementptr inbounds [3000 x double], [3000 x double]* %8, i64 0, i64 1
  %23 = load double, double* %22, align 8
  %24 = fdiv double %21, %23
  store double %24, double* %10, align 8
  store i32 3, i32* %5, align 4
  br label %25

25:                                               ; preds = %57, %16
  %26 = load i32, i32* %5, align 4
  %27 = load i32, i32* %2, align 4
  %28 = add nsw i32 %27, 1
  %29 = icmp sle i32 %26, %28
  br i1 %29, label %30, label %60

30:                                               ; preds = %25
  %31 = load i32, i32* %5, align 4
  %32 = sub nsw i32 %31, 1
  %33 = sext i32 %32 to i64
  %34 = getelementptr inbounds [3000 x double], [3000 x double]* %8, i64 0, i64 %33
  %35 = load double, double* %34, align 8
  %36 = load i32, i32* %5, align 4
  %37 = sub nsw i32 %36, 2
  %38 = sext i32 %37 to i64
  %39 = getelementptr inbounds [3000 x double], [3000 x double]* %8, i64 0, i64 %38
  %40 = load double, double* %39, align 8
  %41 = fadd double %35, %40
  %42 = load i32, i32* %5, align 4
  %43 = sext i32 %42 to i64
  %44 = getelementptr inbounds [3000 x double], [3000 x double]* %8, i64 0, i64 %43
  store double %41, double* %44, align 8
  %45 = load i32, i32* %5, align 4
  %46 = sext i32 %45 to i64
  %47 = getelementptr inbounds [3000 x double], [3000 x double]* %8, i64 0, i64 %46
  %48 = load double, double* %47, align 8
  %49 = load i32, i32* %5, align 4
  %50 = sub nsw i32 %49, 1
  %51 = sext i32 %50 to i64
  %52 = getelementptr inbounds [3000 x double], [3000 x double]* %8, i64 0, i64 %51
  %53 = load double, double* %52, align 8
  %54 = fdiv double %48, %53
  %55 = load double, double* %10, align 8
  %56 = fadd double %55, %54
  store double %56, double* %10, align 8
  br label %57

57:                                               ; preds = %30
  %58 = load i32, i32* %5, align 4
  %59 = add nsw i32 %58, 1
  store i32 %59, i32* %5, align 4
  br label %25

60:                                               ; preds = %25
  %61 = load double, double* %10, align 8
  %62 = call i32 (i8*, ...) @printf(i8* getelementptr inbounds ([7 x i8], [7 x i8]* @.str.1, i64 0, i64 0), double %61)
  br label %63

63:                                               ; preds = %60
  %64 = load i32, i32* %4, align 4
  %65 = add nsw i32 %64, 1
  store i32 %65, i32* %4, align 4
  br label %12

66:                                               ; preds = %12
  ret i32 0
}

declare dso_local i32 @__isoc99_scanf(i8*, ...) #1

declare dso_local i32 @printf(i8*, ...) #1


!llvm.module.flags = !{!0}
!llvm.ident = !{!1}

!0 = !{i32 1, !"wchar_size", i32 4}
!1 = !{!"clang version 10.0.0-4ubuntu1 "}
